(lp0
(imodel.Tweet
Tweet
p1
(dp2
S'text'
p3
V\u0646\u062a\u0645\u0646\u0649 \u0644\u0643\u0645 \u0642\u0636\u0627\u0621 \u0627\u062c\u0627\u0632\u0629 \u0639\u064a\u062f \u0641\u0637\u0631 \u0633\u0639\u064a\u062f \u0645\u0639\u0646\u0627 \u061b daily Ice cream- cold beverage on the pool area\u2026 https://www. instagram.com/p/BHjfJkvhHQj/
p4
sS'topics'
p5
(lp6
sS'hashtags'
p7
S''
p8
sS'feelings'
p9
(lp10
sba(imodel.Tweet
Tweet
p11
(dp12
g3
V.. \u0643\u0644 \u0639\u0627\u0645 \u0648\u0623\u0646\u062a\u0645 \u0628\u062e\u064a\u0631 \u0648\u0639\u064a\u062f \u0641\u0637\u0631 \u0633\u0639\u064a\u062f \u064a\u0639\u0645 \u0628\u0627\u0644\u0641\u0631\u062d \u0648\u0627\u0644\u062d\u0628 . #\u0627\u0644\u0631\u064a\u0627\u0636 #\u0627\u0644\u0633\u0639\u0648\u062f\u064a\u0629 #ksa #riyadh \u2026 https://www. instagram.com/p/BHhzBpVBLd9/
p13
sg5
(lp14
sg7
V#\u0627\u0644\u0631\u064a\u0627\u0636 #\u0627\u0644\u0633\u0639\u0648\u062f\u064a\u0629 #ksa #riyadh
p15
sg9
(lp16
sba(imodel.Tweet
Tweet
p17
(dp18
g3
V\u0646\u0627\u0637\u0631\u0643\u0646 \u0623\u0648\u0644\u060c \u062b\u0627\u0646\u064a \u0648 \u062b\u0627\u0644\u062b \u0623\u064a\u0627\u0645 \u0639\u064a\u062f \u0627\u0644\u0641\u0637\u0631 \u0627\u0644\u0645\u0628\u0627\u0631\u0643 \u0641\u064a \u0646\u0627\u064a\u062a \u0643\u0644\u0648\u0628 \u0625\u0643\u0632\u0627\u0646\u0627\u062f\u0648 - \u062f\u0628\u064a #\u0639\u064a\u062f_\u0627\u0644\u0641\u0637\u0631 #\u0641\u0637\u0631 _\u0645\u0628\u0627\u0631\u0643 \u2026 https://www. instagram.com/p/BHhwIUNDQkV/
p19
sg5
(lp20
sg7
V#\u0639\u064a\u062f_\u0627\u0644\u0641\u0637\u0631 #\u0641\u0637\u0631
p21
sg9
(lp22
sba(imodel.Tweet
Tweet
p23
(dp24
g3
V\u0636\u062d\u0643\u0629 \u0645\u0646 \u0627\u0644\u0642\u0644\u0628 \u0628\u064a\u0648\u0645 \u0627\u0644\u0639\u064a\u062f \u0645\u0639 \u062d\u0628\u064a\u0628\u0629 \u0642\u0644\u0628\u064a #\u0633\u0631\u064a\u0646_\u0639\u0628\u062f\u0627\u0644\u0646\u0648\u0631 #\u0641\u0637\u0631 \u0645\u0628\u0627\u0631\u0643 \u0639\u0644\u0649 \u0627\u0644\u062c\u0645\u064a\u0639 @cyrineabdlnour @\u2026 https://www. instagram.com/p/BHhNjQ7BT-D/
p25
sg5
(lp26
sg7
V#\u0633\u0631\u064a\u0646_\u0639\u0628\u062f\u0627\u0644\u0646\u0648\u0631 #\u0641\u0637\u0631
p27
sg9
(lp28
sba(imodel.Tweet
Tweet
p29
(dp30
g3
VEid Mubarak! \u0639\u064a\u062f \u0641\u0637\u0631 \u0633\u0639\u064a\u062f Hayirli Bayramlar. @Beirut, Lebanon https://www. instagram.com/p/BHgeI4GjiIO/
p31
sg5
(lp32
sg7
g8
sg9
(lp33
sba(imodel.Tweet
Tweet
p34
(dp35
g3
V\u0627\u0644\u0644\u0647\u0645 \u062a\u0642\u0628\u0644 \u0645\u0646\u0627 \u0627\u0644\u0637\u0627\u0639\u0627\u062a.. \u0648\u062b\u0628\u062a\u0646\u0627 \u0639\u0644\u0649 \u0637\u0631\u064a\u0642\u0643 \u0627\u0644\u0645\u0633\u062a\u0642\u064a\u0645.. \u0648\u0639\u064a\u062f \u0641\u0637\u0631 \u0633\u0639\u064a\u062f \u0639\u0644\u0649 \u062c\u0645\u064a\u0639 \u0627\u0644\u0645\u0633\u0644\u0645\u064a\u0646.. \u0627\u062d\u0628\u0643 \u0631\u0628\u064a.. pic.twitter.com/Nmq61klZhx
p36
sg5
(lp37
sg7
g8
sg9
(lp38
sba(imodel.Tweet
Tweet
p39
(dp40
g3
V\u0643\u0644 \u0633\u0646\u0629 \u0648 \u0623\u0646\u062a\u0645 \u0637\u064a\u0628\u064a\u0646 \u0648 \u0628\u062e\u064a\u0631 \u0623\u0646\u062a\u0645 \u0648 \u0643\u0644 \u0623\u0647\u0644\u0643\u0645 \u0648 \u0627\u0644\u0644\u064a \u0628\u062a\u062d\u0628\u0648\u0647\u0645 \u064a\u0627 \u0631\u0628 \u060c \u0639\u064a\u062f \u0641\u0637\u0631 \u0633\u0639\u064a\u062f \u0639\u0644\u064a\u0646\u0627 \u0643\u0644\u0646\u0627 \u0625\u0646 \u0634\u0627\u0621\u2026 https://www. instagram.com/p/BHgRgYMD1A3/
p41
sg5
(lp42
sg7
g8
sg9
(lp43
sba(imodel.Tweet
Tweet
p44
(dp45
g3
V\u0644\u0648 \u0623\u0646\u0627 \u0623\u0641\u0643\u0631 \u0623\u0639\u0645\u0644 \u0643\u0647\u0643 \u0639\u064a\u062f \u0628\u064a\u0648\u0645 \u0645\u0646 \u0627\u0644\u0627\u064a\u0627\u0645 \u0647\u064a\u0643 \u0631\u062d \u064a\u0637\u0644\u0639 \u0634\u0643\u0644\u0648\u060c \u0643\u0644 \u0639\u0627\u0645 \u0648\u0627\u0646\u062a\u0648 \u0628\u062e\u064a\u0631 #\u0639\u064a\u062f_\u0633\u0639\u064a\u062f #\u0641\u0637\u0631 \u2026 https://www. instagram.com/p/BHfpilQAvaT/
p46
sg5
(lp47
sg7
V#\u0639\u064a\u062f_\u0633\u0639\u064a\u062f #\u0641\u0637\u0631
p48
sg9
(lp49
sba(imodel.Tweet
Tweet
p50
(dp51
g3
V\u0643\u0644 \u0639\u0627\u0645 \u0648 \u0627\u0646\u062a\u0645 \u0628\u0627\u0644\u0641 \u062e\u064a\u0631 #\u0639\u064a\u062f_\u0645\u0628\u0627\u0631\u0643 #\u0639\u064a\u062f_ \u0641\u0637\u0631 _\u0645\u0628\u0627\u0631\u0643 #\u0643\u0644_\u0639\u0627\u0645_\u0648\u0627\u0646\u062a\u0645#\u0639\u0633\u0627\u0643\u0645_\u0645\u0646_\u0639\u0648\u0627\u062f\u0647\u2026 https://www. instagram.com/p/BHfoRNRBfOC/
p52
sg5
(lp53
sg7
V#\u0639\u064a\u062f_\u0645\u0628\u0627\u0631\u0643 #\u0639\u064a\u062f_ #\u0643\u0644_\u0639\u0627\u0645_\u0648\u0627\u0646\u062a\u0645 #\u0639\u0633\u0627\u0643\u0645_\u0645\u0646_\u0639\u0648\u0627\u062f\u0647
p54
sg9
(lp55
sba(imodel.Tweet
Tweet
p56
(dp57
g3
V\u0643\u0644 \u0639\u0627\u0645 \u0648\u0627\u0646\u062a\u0645 \u0628\u0627\u0644\u0641 \u062e\u064a\u0631 #\u0639\u064a\u062f_\u0645\u0628\u0627\u0631\u0643 #\u0639\u064a\u062f_ \u0641\u0637\u0631 _\u0645\u0628\u0627\u0631\u0643 #\u0639\u064a\u062f_\u0645\u0628\u0627\u0631\u0643_\u0648\u0639\u0633\u0627\u0643\u0645_\u0645\u0646_\u0639\u0648\u0627\u062f\u0647 \u2026 https://www. instagram.com/p/BHfnBFhBmiz/
p58
sg5
(lp59
sg7
V#\u0639\u064a\u062f_\u0645\u0628\u0627\u0631\u0643 #\u0639\u064a\u062f_ #\u0639\u064a\u062f_\u0645\u0628\u0627\u0631\u0643_\u0648\u0639\u0633\u0627\u0643\u0645_\u0645\u0646_\u0639\u0648\u0627\u062f\u0647
p60
sg9
(lp61
sba(imodel.Tweet
Tweet
p62
(dp63
g3
V- \u064a\u0627\u0648\u0644\u0627\u062f \u0627\u0644\u0623\u064a\u0647 \u0639\u0646\u062f\u0643\u0648 \u0639\u064a\u062f \u0641\u0637\u0631 \u0648\u0627\u0646\u0627 \u0645\u0639\u0646\u062f\u064a\u0634 pic.twitter.com/VZyfiso5oQ
p64
sg5
(lp65
sg7
g8
sg9
(lp66
sba(imodel.Tweet
Tweet
p67
(dp68
g3
V\u0627\u0644\u0622\u0646 \u0627\u0644\u0639\u0631\u0636\u0629 \u0627\u0644\u0646\u062c\u062f\u064a\u0629 \u0641\u064a \u0623\u0634\u064a\u0642\u0631 \u0627\u0644\u0639\u0631\u0627\u0642\u0629 \u0648\u0627\u0644\u0639\u0632 ..\u0645\u0646 \u0641\u0639\u0627\u0644\u064a\u0627\u062a \u0627\u0644\u0627\u062d\u062a\u0641\u0627\u0644 \u0628\u0639\u064a\u062f \u0641\u0637\u0631 \u0661\u0664\u0663\u0667\u0647\u0640 pic.twitter.com/42AXHQNff8
p69
sg5
(lp70
sg7
g8
sg9
(lp71
sba(imodel.Tweet
Tweet
p72
(dp73
g3
V\u0641\u0637\u0631 \u0627\u0644\u0644\u0647 \u0647\u0630\u0647 \u0627\u0644\u062f\u0646\u064a\u0627 \u0639\u0644\u0649 \u0627\u0644\u062a\u062c\u062f\u062f.. \u0648\u0641\u0637\u0631 \u0627\u0644\u0625\u0646\u0633\u0627\u0646 \u0639\u0644\u0649 \u0642\u062f\u0631\u0629 \u0627\u0633\u062a\u0626\u0646\u0627\u0641 \u0627\u0644\u062d\u064a\u0627\u0629 \u0648\u0627\u0644\u062d\u0631\u0628 \u0648\u0625\u0646 \u0637\u0648\u062a \u0635\u0641\u062d\u0629 .. \u0641\u0642\u062f \u0628\u062f\u0623\u062a \u0635\u0641\u062d\u0627\u062a \u0623\u062e\u0631\u0649.. \u0648\u0627\u0644\u0644\u0647 \u0645\u0646 \u0648\u0631\u0627\u0626\u0647\u0645 \u0645\u062d\u064a\u0637
p74
sg5
(lp75
sg7
g8
sg9
(lp76
sba(imodel.Tweet
Tweet
p77
(dp78
g3
V. \u0639\u064a\u062f \u0641\u0637\u0631 \u0645\u0628\u0627\u0631\u0643.. \u0634\u0631\u0641\u0648\u0646\u0627 \u0641\u064a #\u0633\u0648\u0642_\u0627\u0644\u062c\u0645\u0639\u0629 \u0645\u0646 \u0627\u0644\u064a\u0648\u0645 \u0648\u062d\u062a\u0649 \u0661\u0661 \u0634\u0648\u0627\u0644 #\u0645\u0647\u0631\u062c\u0627\u0646_\u062c\u062f\u0629_\u0627\u0644\u062a\u0627\u0631\u064a\u062e\u064a\u0629 pic.twitter.com/YJDqTQpGg1
p79
sg5
(lp80
sg7
V#\u0633\u0648\u0642_\u0627\u0644\u062c\u0645\u0639\u0629 #\u0645\u0647\u0631\u062c\u0627\u0646_\u062c\u062f\u0629_\u0627\u0644\u062a\u0627\u0631\u064a\u062e\u064a\u0629
p81
sg9
(lp82
sba(imodel.Tweet
Tweet
p83
(dp84
g3
V\u0639\u064a\u062f \u0641\u0637\u0631 \u0645\u0628\u0627\u0631\u0643. \u064a\u0646\u0639\u0627\u062f \u0639\u0644\u064a\u0643\u0645 \u0628\u062f\u0648\u0627\u0645 \u0627\u0644\u0635\u062d\u0629 \u0648 \u0627\u0644\u0639\u0627\u0641\u064a\u0629.
p85
sg5
(lp86
sg7
g8
sg9
(lp87
sba(imodel.Tweet
Tweet
p88
(dp89
g3
V\u0646\u0645\u0627\u0632 \u0639\u06cc\u062f \u0641\u0637\u0631 \u062f\u0631 \u0634\u0647\u0631 \u0628\u0631\u0645\u06cc\u0646\u06af\u0647\u0627\u0645 \u0628\u0631\u06cc\u062a\u0627\u0646\u06cc\u0627 \u0628\u0627 \u062d\u062f\u0648\u062f \u06f9\u06f0\u0647\u0632\u0627\u0631 \u0646\u0645\u0627\u0632\u06af\u0632\u0627\u0631\u060c \u0628\u0632\u0631\u06af\u200c\u062a\u0631\u06cc\u0646 \u0645\u0631\u0627\u0633\u0645 \u0639\u06cc\u062f \u062f\u0631 \u0627\u0631\u0648\u067e\u0627 \u0628\u0648\u062f\u0647 \u0627\u0633\u062a - \u0633\u0627\u0646 pic.twitter.com/72qvYe0PZI
p90
sg5
(lp91
sg7
g8
sg9
(lp92
sba(imodel.Tweet
Tweet
p93
(dp94
g3
V\u0639\u064a\u062f \u0641\u0637\u0631 \u0633\u0639\u064a\u062f \u0639\u0644\u064a \u0627\u0644\u062c\u0645\u064a\u0639 #\u0639\u064a\u062f_ \u0641\u0637\u0631 _\u0633\u0639\u064a\u062f pic.twitter.com/FDmDhqu7gf
p95
sg5
(lp96
sg7
V#\u0639\u064a\u062f_
p97
sg9
(lp98
sba(imodel.Tweet
Tweet
p99
(dp100
g3
V\u0648\u0627\u0644\u062f\u0629 #\u0627\u0644\u0634\u0647\u064a\u062f_\u0639\u0644\u064a_\u0627\u0644\u0634\u064a\u062e \u0641\u064a \u0643\u0644 #\u0639\u064a\u062f_ \u0641\u0637\u0631 \u0644\u0647\u0627 \u0645\u0648\u0639\u062f\u064c \u0645\u0639 \u0627\u0644\u0628\u0643\u0627\u0621 \u0648\u0627\u0644\u062f\u0645\u0648\u0639 #\u0627\u0644\u0628\u062d\u0631\u064a\u0646 pic.twitter.com/VXhg8bPR1u
p101
sg5
(lp102
sg7
V#\u0627\u0644\u0634\u0647\u064a\u062f_\u0639\u0644\u064a_\u0627\u0644\u0634\u064a\u062e #\u0639\u064a\u062f_ #\u0627\u0644\u0628\u062d\u0631\u064a\u0646
p103
sg9
(lp104
sba(imodel.Tweet
Tweet
p105
(dp106
g3
V#EidMubaarak #\u0639\u064a\u062f_ \u0641\u0637\u0631 #\u0639\u064a\u062f_\u0633\u0639\u064a\u062f #\u0627\u064a\u0645\u0646_\u0627\u0644\u0627\u0639\u062a\u0631 #\u0641\u064a_\u0642\u0644\u0628\u064a_\u0643\u0644\u0627\u0645 #AymanAlatar #FiGalbiKalam pic.twitter.com/M1JVxJFV8Y
p107
sg5
(lp108
sg7
V#EidMubaarak #\u0639\u064a\u062f_ #\u0639\u064a\u062f_\u0633\u0639\u064a\u062f #\u0627\u064a\u0645\u0646_\u0627\u0644\u0627\u0639\u062a\u0631 #\u0641\u064a_\u0642\u0644\u0628\u064a_\u0643\u0644\u0627\u0645 #AymanAlatar #FiGalbiKalam
p109
sg9
(lp110
sba(imodel.Tweet
Tweet
p111
(dp112
g3
V\u0645\u0631\u062f\u0645 \u067e\u0627\u0631\u0633\u0627\u0644 \u062a\u0631\u0627\u0641\u06cc\u06a9 \u0633\u0646\u06af\u06cc\u0646 \u0639\u06cc\u062f \u0641\u0637\u0631 \u0634\u0645\u0627\u0644 \u0631\u0648 \u062f\u06cc\u062f\u0646 \u0627\u0645\u0627 \u0628\u0627\u0632 \u0627\u0645\u0633\u0627\u0644 \u0628\u0644\u0646\u062f \u0634\u062f\u0646 \u0631\u0641\u062a\u0646 \u0634\u0645\u0627\u0644. \u0645\u0631\u062f\u0645\u0627\u0646\u06cc \u06a9\u0647 \u0628\u0631\u0627\u06cc \u0648\u0642\u062a\u0634\u0648\u0646 \u0627\u0631\u0632\u0634 \u0642\u0627\u06cc\u0644 \u0646\u0628\u0627\u0634\u0646 \u0647\u0645\u06cc\u0646 \u0645\u06cc\u0634\u0647 \u062f\u06cc\u06af\u0647
p113
sg5
(lp114
sg7
g8
sg9
(lp115
sba(imodel.Tweet
Tweet
p116
(dp117
g3
V\u062d\u0627\u062c\u0647 \u0648\u062d\u064a\u062f\u0647 \u0647\u062a\u062c\u0628\u0631\u0646\u064a \u0623\u0641\u0631\u062d \u0628\u0627\u0644\u0639\u064a\u062f \u062d\u062a\u0649 \u0644\u0648 \u0645\u0639\u0645\u0644\u062a\u0634 \u062d\u0627\u062c\u0647 \u062c\u062f\u064a\u062f\u0647 \u0627\u0646 \u062f\u0627 \u0645\u0645\u0643\u0646 \u064a\u0628\u0642\u0649 \u0622\u062e\u0631 \u0639\u064a\u062f \u064a\u0639\u062f\u0651\u064a \u0639\u0644\u064a\u0627 \u0645\u0646 \u063a\u064a\u0631 \u0645\u0630\u0627\u0643\u0631\u0647 \u0633\u0648 \u0644\u064a\u062a\u0633 \u062f\u0627\u0646\u0633 \u0644\u062d\u062f \u0622\u062e\u0631 \u0627\u0644\u0639\u064a\u062f..
p118
sg5
(lp119
sg7
g8
sg9
(lp120
sba(imodel.Tweet
Tweet
p121
(dp122
g3
V\u0645\u0633\u0627\u0624\u0648\u0648 #\u0639\u064a\u062f _\u0627\u0644\u0641\u0637\u0631 #\u0627\u0644\u0627\u0631\u062f\u0646_\u0639\u0645\u0627\u0646 #\u0627\u0644\u062c\u0632\u0627\u0626\u0631 #\u0627\u0644\u062e\u0644\u064a\u062c_\u0627\u0644\u0639\u0631\u0628\u064a #\u0627\u0644\u062e\u0644\u064a\u062c #\u0627\u0644\u0627\u0645\u0627\u0631\u0627\u062a #\u0627\u0644\u0643\u0648\u064a\u062a #\u0627\u0644\u0628\u062d\u0631\u064a\u0646 \u2026 https://www. instagram.com/p/BHkNN5pB9Pp/
p123
sg5
(lp124
sg7
V#\u0639\u064a\u062f #\u0627\u0644\u0627\u0631\u062f\u0646_\u0639\u0645\u0627\u0646 #\u0627\u0644\u062c\u0632\u0627\u0626\u0631 #\u0627\u0644\u062e\u0644\u064a\u062c_\u0627\u0644\u0639\u0631\u0628\u064a #\u0627\u0644\u062e\u0644\u064a\u062c #\u0627\u0644\u0627\u0645\u0627\u0631\u0627\u062a #\u0627\u0644\u0643\u0648\u064a\u062a #\u0627\u0644\u0628\u062d\u0631\u064a\u0646
p125
sg9
(lp126
sba(imodel.Tweet
Tweet
p127
(dp128
g3
V#\u0646\u062d\u0628\u0647\u0645_\u0648\u0645\u0627\u0639\u064a\u062f\u0648\u0627_\u0645\u0639\u0646\u0627 \u0647\u0645 \u0641\u064a \u0642\u0644\u0648\u0628\u0646\u0627 \u0648 \u0625\u0646 \u0644\u0645 \u062a\u062d\u0636\u0631 \u0623\u062c\u0633\u0627\u062f\u0647\u0645 \u060c\u060c\u0643\u0644 \u0639\u064a\u062f \u0648\u0642\u0644\u0628\u064a \u064a\u062c\u062f\u062f \u0639\u064a\u062f\u0647 \u0628\u0630\u0643\u0631\u064a\u0627\u062a\u0647\u0627 ..\u0632\u0648\u062c\u062a\u064a \u0643\u0644 \u0639\u0627\u0645 \u0648\u0630\u0643\u0631\u064a\u0627\u062a\u0643 \u0639\u064a\u062f \u0627\u0644\u0644\u0647\u0645 \u0627\u063a\u0641\u0631 \u0644\u0647\u0627 \u064a\u0627\u0631\u0628
p129
sg5
(lp130
sg7
V#\u0646\u062d\u0628\u0647\u0645_\u0648\u0645\u0627\u0639\u064a\u062f\u0648\u0627_\u0645\u0639\u0646\u0627
p131
sg9
(lp132
sba(imodel.Tweet
Tweet
p133
(dp134
g3
V\u062d\u0635\u0631\u064a\u0627\u064b \u0627\u0644\u0646\u062c\u0648\u0645 \u064a\u0639\u0627\u064a\u062f\u0648\u0646\u0643\u0645 \u0641\u064a #\u0639\u064a\u062f _\u0627\u0644\u0641\u0637\u0631 @saad_ramadan @nadineelrassi @naderalatat @qaysnajib \u2026 https://www. instagram.com/p/BHjmnTIjM7L/
p135
sg5
(lp136
sg7
V#\u0639\u064a\u062f
p137
sg9
(lp138
sba(imodel.Tweet
Tweet
p139
(dp140
g3
V\u0645\u0634 \u0639\u0627\u0648\u0632\u0647 \u0639\u064a\u062f \u0627\u0646\u0627 \u0639\u0627\u0648\u0632\u0647 \u0627\u0633\u0627\u0641\u0631
p141
sg5
(lp142
sg7
g8
sg9
(lp143
sba(imodel.Tweet
Tweet
p144
(dp145
g3
V\u0635\u0648\u0631 \u0644\u0641\u0646\u0627\u0646\u064a\u0646 \u0648\u0627\u0639\u0644\u0627\u0645\u064a\u064a\u0646 \u064a\u0634\u0627\u0631\u0643\u0648\u0646 \u0641\u064a #\u0627\u0644\u0628\u0633_\u062c\u0632\u0627\u064a\u0631\u064a_\u0641\u064a_\u0627\u0644\u0639\u064a\u062f \u0644\u0644\u062d\u0641\u0627\u0638 \u0639\u0644\u0649 \u0645\u0648\u0631\u0648\u062b\u0646\u0627 \u0627\u0644\u062b\u0642\u0627\u0641\u064a #\u0627\u0644\u062c\u0632\u0627\u0626\u0631 #\u0627\u0647\u062f\u0631_\u062c\u0632\u0627\u064a\u0631\u064a #\u0639\u064a\u062f _\u0645\u0628\u0627\u0631\u0643 pic.twitter.com/zBuRy3215m
p146
sg5
(lp147
sg7
V#\u0627\u0644\u0628\u0633_\u062c\u0632\u0627\u064a\u0631\u064a_\u0641\u064a_\u0627\u0644\u0639\u064a\u062f #\u0627\u0644\u062c\u0632\u0627\u0626\u0631 #\u0627\u0647\u062f\u0631_\u062c\u0632\u0627\u064a\u0631\u064a #\u0639\u064a\u062f
p148
sg9
(lp149
sba(imodel.Tweet
Tweet
p150
(dp151
g3
V\u0637\u0628\u0642 \u0643\u062d\u0643 \u0648\u0637\u0628\u0642 \u062a\u0631\u0645\u0633 \u0648\u0637\u0628\u0642 \u0634\u064a\u0643\u0648\u0644\u0627\u062a\u0647 \u0648\u0645\u0633\u0631\u062d\u064a\u0629 \u0627\u0644\u0639\u064a\u0627\u0644 \u0643\u0628\u0631\u062a .... \u0639\u064a\u062f \u0632\u0649 \u0627\u0644\u0641\u0644 \u064a\u0627\u062e\u0648\u0627\u0646\u0627 \u0623\u0642\u0633\u0645 \u0628\u0627\u0644\u0644\u0647
p152
sg5
(lp153
sg7
g8
sg9
(lp154
sba(imodel.Tweet
Tweet
p155
(dp156
g3
V\u0645\u0639 \u0642\u0631\u0629 \u0627\u0644\u0639\u064a\u0646 \u0625\u0628\u0646\u064a " \u0645\u062d\u0645\u062f \u0645\u0647\u062f\u064a " #\u0645\u062d\u0645\u062f_\u0627\u0644\u062d\u062c\u064a\u0631\u0627\u062a #\u0639\u064a\u062f _\u0627\u0644\u0641\u0637\u0631 #\u0627\u0644\u0643\u0648\u064a\u062a 1437 \u0647\u062c\u0631\u064a 2016 \u0645\u064a\u0644\u0627\u062f\u064a @Kuwait\u2026 https://www. instagram.com/p/BHiOsP2DpsY/
p157
sg5
(lp158
sg7
V#\u0645\u062d\u0645\u062f_\u0627\u0644\u062d\u062c\u064a\u0631\u0627\u062a #\u0639\u064a\u062f #\u0627\u0644\u0643\u0648\u064a\u062a
p159
sg9
(lp160
sba(imodel.Tweet
Tweet
p161
(dp162
g3
V#\u0639\u064a\u062f _\u0633\u0639\u064a\u062f @TAG'S https://www. instagram.com/p/BHhz8CujF0Mc Zq05LhgryOyoaRtW_SeNtnoGJA0/ \u2026
p163
sg5
(lp164
sg7
V#\u0639\u064a\u062f
p165
sg9
(lp166
sba(imodel.Tweet
Tweet
p167
(dp168
g3
V\u0627\u0644\u0644\u0647\u0645 \u0644\u0643 \u0627\u0644\u062d\u0645\u062f \u0627\u0645\u0637\u0627\u0631 #\u0648\u0627\u062f\u064a_\u0627\u0644\u062d\u0644\u0648 #\u062a\u0627\u0631\u064a\u062e 6/7/2016 #\u0627\u0648\u0644 \u0627\u064a\u0627\u0645 \u0639\u064a\u062f \u0627\u0644\u0641\u0637\u0631 #\u0639\u062f\u0633\u062a\u064a #\u0645\u062d\u0645\u062f\u0627\u0644\u0643\u0627\u0633 \u2026 https://www. instagram.com/p/BHhdw2dBBEb/
p169
sg5
(lp170
sg7
V#\u0648\u0627\u062f\u064a_\u0627\u0644\u062d\u0644\u0648 #\u062a\u0627\u0631\u064a\u062e #\u0627\u0648\u0644 #\u0639\u062f\u0633\u062a\u064a #\u0645\u062d\u0645\u062f\u0627\u0644\u0643\u0627\u0633
p171
sg9
(lp172
sba(imodel.Tweet
Tweet
p173
(dp174
g3
V\u062a\u06cc\u0631\u06cc \u062c\u0628 \u06a9\u06c1 \u062f\u06cc\u062f \u06c1\u0648 \u06af\u06cc \u0645\u06cc\u0631\u06cc \u062a\u0628 \u06c1\u06cc \u0639\u06cc\u062f \u06c1\u0648 \u06af\u06cc \u0635\u0644\u06cc \u0627\u0644\u0644\u06c1 \u0639\u0644\u06cc\u06c1 \u0648 \u0622\u0644\u06c1 \u0648\u0633\u0644\u0645 pic.twitter.com/OLTXGmwhOy
p175
sg5
(lp176
sg7
g8
sg9
(lp177
sba(imodel.Tweet
Tweet
p178
(dp179
g3
V#\u0639\u064a\u062f _\u0627\u0644\u0631\u064a\u0627\u0636_\u0639\u064a\u062f\u064a\u0646_\u0645\u0639\u0627\u0630_\u0627\u0644\u062c\u0645\u0627\u0632 \u0627\u0647\u0646\u064a\u0643 \u0639 \u0627\u0644\u0634\u064a\u0644\u0647 \u0627\u0644\u0628\u0637\u0644\u0647 @muath_aljmaz pic.twitter.com/YETXdr520E
p180
sg5
(lp181
sg7
V#\u0639\u064a\u062f
p182
sg9
(lp183
sba(imodel.Tweet
Tweet
p184
(dp185
g3
V\u0642\u0644\u0628 \u0648\u0627\u062d\u062f \u062c\u0633\u062f \u0648\u0627\u062d\u062f \u0639\u0628\u0627\u0631\u0629 \u0632\u064a\u0646\u062a \u0633\u064a\u0627\u0631\u0627\u062a \u0627\u0644\u0625\u0645\u0627\u0631\u0627\u062a\u064a\u064a\u0646 \u0641\u064a \u0627\u062d\u062a\u0641\u0627\u0644\u0627\u062a #\u0623\u0645\u0627\u0646\u0629_\u0645\u0646\u0637\u0642\u0629_\u0627\u0644\u0631\u064a\u0627\u0636 #\u0639\u064a\u062f _\u0627\u0644\u0631\u064a\u0627\u0636_\u0639\u064a\u062f\u064a\u0646 pic.twitter.com/WUfatMu5p7
p186
sg5
(lp187
sg7
V#\u0623\u0645\u0627\u0646\u0629_\u0645\u0646\u0637\u0642\u0629_\u0627\u0644\u0631\u064a\u0627\u0636 #\u0639\u064a\u062f
p188
sg9
(lp189
sba(imodel.Tweet
Tweet
p190
(dp191
g3
V#\u0627\u0644\u0631\u064a\u0633_\u0641\u064a_\u0627\u0644\u0645\u0639\u0645\u0648\u0631\u0647 \u0627\u0644\u0645\u0639\u0645\u0648\u0631\u0629....\u0646\u0648\u0631\u062a \u0627\u0633\u0643\u0646\u062f\u0631\u064a\u0629....\u0645\u0646\u0648\u0631\u0629 \u0628\u064a\u0643 \u064a\u0627 \u0627\u062d\u0644\u064a \u0631\u064a\u0633 \u0648\u0627\u062d\u0644\u064a \u0639\u064a\u062f pic.twitter.com/xi3ilq35T0
p192
sg5
(lp193
sg7
V#\u0627\u0644\u0631\u064a\u0633_\u0641\u064a_\u0627\u0644\u0645\u0639\u0645\u0648\u0631\u0647
p194
sg9
(lp195
sba(imodel.Tweet
Tweet
p196
(dp197
g3
V\u062a\u0633\u0644\u0644\u064e\u0651 \u0627\u0644\u0639\u064a\u062f\u064f \u0645\u0646 \u0623\u0635\u0627\u0628\u0650\u0639\u0650\u0646\u064e\u0627 \u0643\u0623\u0646\u064e\u0651\u0645\u0627 \u0627\u0644\u0639\u064a\u062f\u064f \u063a\u0627\u062f\u0631\u064e \u0627\u0644\u0632\u064e\u0651\u0645\u0646\u0627 \u0623\u0633\u0627\u0626\u0644\u064f \u0627\u0644\u0646\u064e\u0651\u0627\u0633\u064e \u0639\u0646 \u0645\u0644\u0627\u0645\u062d\u0650\u0647\u0650 #\u0639\u064a\u062f _\u0634\u0647\u064a\u062f .. \u0642\u062f \u0627\u0631\u062a\u062f\u0649 \u0627\u0644\u0643\u0641\u0646\u0627 pic.twitter.com/PIrmG9o9Tj
p198
sg5
(lp199
sg7
V#\u0639\u064a\u062f
p200
sg9
(lp201
sba(imodel.Tweet
Tweet
p202
(dp203
g3
V\u0639\u0633\u0627\u0643\u0645 \u064a\u0627\u062c\u0645\u0627\u0639\u0647 \u0643\u0644 \u0639\u0627\u0645 \u062a\u0639\u064a\u062f\u0648\u0646 \u0627\u0644\u0639\u064a\u062f \u0628\u0639\u062f \u0648\u062c\u0628\u062a \u0639\u0646\u062f \u0639\u064a\u0627\u0644 \u0639\u0645 \u0648\u0639\u0646\u062f \u0635\u062f\u0642\u0627\u0646\u064a \u0642\u0627\u0644 \u0647\u0630\u0627 \u0627\u0644\u0628\u064a\u062a \u062c\u0645\u064a\u0644 \u0628\u0646 \u062c\u0648\u064a\u0628\u0631 \u0641\u064a \u0644\u064a\u0644\u0629 \u0639\u064a\u062f \u062c\u0645\u0639\u062a \u062c\u0645\u064a\u0639 \u0627\u0644\u0646\u0648\u0627\u0634\u064a \u0642\u0628\u0644 35\u0633\u0646\u0647
p204
sg5
(lp205
sg7
g8
sg9
(lp206
sba(imodel.Tweet
Tweet
p207
(dp208
g3
V\u0635\u0648\u0631 \u0645\u0646 \u0645\u062c\u0645\u0648\u0639\u0629 Keith Wheeler \u0644\u0627\u062d\u062a\u0641\u0627\u0644\u0627\u062a \u0639\u064a\u062f \u0627\u0644\u0641\u0637\u0631 \u0639\u0627\u0645 1380 \u0647\u062c\u0631\u064a\u0629\u060c \u0648\u0627\u0644\u0645\u0632\u064a\u062f \u0641\u064a \u0627\u0644\u0631\u0627\u0628\u0637: http://www. wheelerfolk.org/military/18id_ al_fitr/indx.htm \u2026 pic.twitter.com/29BYSpskA1
p209
sg5
(lp210
sg7
g8
sg9
(lp211
sba(imodel.Tweet
Tweet
p212
(dp213
g3
V\u0627\u0644\u0639\u064a\u062f \u0639\u064a\u062f \u0627\u0646 \u062c\u0627\u0628 \u0639\u0637\u0631\u0643 \u0648\u0637\u0627\u0631\u064a\u0643 \u0648\u0627\u0647\u062f\u0627\u0643 \u0644\u064a \u0641\u0631\u062d\u0647 \u0648\u0642\u0631\u0628 \u0628\u0639\u064a\u062f\u0643 \u0648\u062a\u062c\u0645\u0644\u062a \u0643\u0644 \u0627\u0644\u062d\u064a\u0627\u0629 \u0628 \u0644\u064a\u0627\u0644\u064a\u0643 \u0648\u0641\u064a \u0643\u0644 \u0635\u0628\u062d \u0627\u0642\u0648\u0644 \u0644\u0643 \u0639\u0627\u062f \u0639\u064a\u062f\u0643 #\u0639\u0648\u0627\u062f_\u0628\u0646_\u0637\u0648\u0627\u0644\u0647
p214
sg5
(lp215
sg7
V#\u0639\u0648\u0627\u062f_\u0628\u0646_\u0637\u0648\u0627\u0644\u0647
p216
sg9
(lp217
sba(imodel.Tweet
Tweet
p218
(dp219
g3
V\u0648 \u0647\u0630\u0627 \u0644\u0646\u0627 \u0641\u062e\u0631 \u0648 #\u0639\u064a\u062f \u0648 \u0644\u0644\u0639\u0628\u064a\u062f \u063a\u064a\u0636 \u0648\u062a\u0646\u0643\u064a\u062f .. \u062a\u062d\u064a\u0629 \u0644\u0644\u0643\u0628\u0627\u0631 #\u0639\u064a\u062f\u0643\u0645_\u0645\u0628\u0627\u0631\u0643 pic.twitter.com/JLmVT2zmkW
p220
sg5
(lp221
sg7
V#\u0639\u064a\u062f #\u0639\u064a\u062f\u0643\u0645_\u0645\u0628\u0627\u0631\u0643
p222
sg9
(lp223
sba(imodel.Tweet
Tweet
p224
(dp225
g3
V\u0634\u064a \u064a\u062b\u0644\u062c \u0627\u0644\u0635\u062f\u0631 \u0639\u0646\u062f\u0645\u0627 \u062a\u0631\u0649 \u0627\u0644\u0641\u0631\u062d \u0648\u0627\u0644\u0633\u0639\u0627\u062f\u0629 \u0628\u0627\u0644\u0645\u0634\u0627\u0631\u0643\u064a\u0646 \u0628\u0627\u062d\u062a\u0641\u0627\u0644\u0627\u062a \u0627\u0644\u0623\u0647\u0627\u0644\u064a \u0628\u0645\u0646\u0627\u0633\u0628\u0629 \u0639\u064a\u062f \u0627\u0644\u0641\u0637\u0631 \u0627\u0644\u0633\u0639\u064a\u062f #\u0627\u0644\u063a\u0627\u0637 pic.twitter.com/q1DuSt59fx
p226
sg5
(lp227
sg7
V#\u0627\u0644\u063a\u0627\u0637
p228
sg9
(lp229
sba(imodel.Tweet
Tweet
p230
(dp231
g3
V\u0645\u0634\u064a \u0627\u0644\u064a\u0648\u0645 #\u0627\u0644\u0645\u0634\u064a_\u0644\u0644\u0635\u062d\u0629 #\u0645\u0634\u0627\u0629_\u062c\u0627\u0632\u0627\u0646 #\u0643\u0644_\u0639\u0627\u0645_\u0648\u0627\u0646\u062a\u0645_\u0628\u062e\u064a\u0631 #\u0639\u064a\u062f_ \u0633\u0639\u064a\u062f #running #nike #nikeplus @\u2026 https://www. instagram.com/p/BHkk4r2Arch/
p232
sg5
(lp233
sg7
V#\u0627\u0644\u0645\u0634\u064a_\u0644\u0644\u0635\u062d\u0629 #\u0645\u0634\u0627\u0629_\u062c\u0627\u0632\u0627\u0646 #\u0643\u0644_\u0639\u0627\u0645_\u0648\u0627\u0646\u062a\u0645_\u0628\u062e\u064a\u0631 #\u0639\u064a\u062f_ #running #nike #nikeplus
p234
sg9
(lp235
sba(imodel.Tweet
Tweet
p236
(dp237
g3
V" @rewaina : @jehanmohammed7 @LadyRain55 @mg_egypt @amna_5555 @engy_rashad @doaaa9351 \u0643\u0644 \u0633\u0646\u0629 \u0648\u0627\u0646\u062a\u0649 \u0637\u064a\u0628\u0629 \u064a\u0627 \u0642\u0644\u0628\u0649 \u0648\u0639\u064a\u062f \u0633\u0639\u064a\u062f \u0639\u0644\u064a\u0643\u0649 \u064a\u0627 \u0631\u0628"
p238
sg5
(lp239
sg7
g8
sg9
(lp240
sba(imodel.Tweet
Tweet
p241
(dp242
g3
V#\u0639\u064a\u062f_ \u0633\u0639\u064a\u062f @TAG'S https://www. instagram.com/p/BHhz8CujF0Mc Zq05LhgryOyoaRtW_SeNtnoGJA0/ \u2026
p243
sg5
(lp244
sg7
V#\u0639\u064a\u062f_
p245
sg9
(lp246
sba(imodel.Tweet
Tweet
p247
(dp248
g3
V@faridarguiba \u0639\u064a\u062f \u0633\u0639\u064a\u062f \u0643\u0644 \u0639\u0627\u0645 \u0648\u0627\u0646\u062a\u064a \u0628\u0627\u0644\u0641 \u062e\u064a\u0631 \u064a\u0646\u0639\u0627\u062f \u0639\u0644\u064a\u0643 \u0648\u0639\u0644\u0649 \u0643\u0644 \u0627\u0644\u0639\u0627\u0626\u0644\u0629 \u0628\u0627\u0644\u062e\u064a\u0631 \u0648\u0627\u0644\u0635\u062d\u0629 \u0648\u0627\u0644\u0639\u0627\u0641\u064a\u0629 \u0627\u0646 \u0634\u0627\u0621 \u0627\u0644\u0644\u0647 \u064a\u062a\u0642\u0628\u0644 \u0645\u0646\u0627 \u0648\u0645\u0646\u0643\u0645 \u0635\u0627\u0644\u062d \u0627\u0644\u0627\u0639\u0645\u0627\u0644
p249
sg5
(lp250
sg7
g8
sg9
(lp251
sba(imodel.Tweet
Tweet
p252
(dp253
g3
V\u0631\u0628\u0646\u0627 \u064a\u062f\u064a\u0645 \u0644\u0645\u062a\u0646\u0627 #\u0627\u062d\u0645\u062f_\u0645\u062d\u0631\u0645 #\u0635\u062d\u0641\u064a #\u0643\u0648\u0627\u0644\u064a\u0633 #\u0627\u0644\u0645\u0639\u0644\u0645 #\u0645\u0635\u0631 #\u0645\u0635\u0637\u0641\u064a_\u0645\u062d\u0645\u0648\u062f #\u0639\u064a\u062f_ \u0633\u0639\u064a\u062f @\u0645\u0633\u062c\u062f \u0645\u0635\u0637\u0641\u0649 \u0645\u062d\u0645\u0648\u062f https://www. instagram.com/p/BHgjhCxgOYj/
p254
sg5
(lp255
sg7
V#\u0627\u062d\u0645\u062f_\u0645\u062d\u0631\u0645 #\u0635\u062d\u0641\u064a #\u0643\u0648\u0627\u0644\u064a\u0633 #\u0627\u0644\u0645\u0639\u0644\u0645 #\u0645\u0635\u0631 #\u0645\u0635\u0637\u0641\u064a_\u0645\u062d\u0645\u0648\u062f #\u0639\u064a\u062f_
p256
sg9
(lp257
sba(imodel.Tweet
Tweet
p258
(dp259
g3
V\u0623\u062d\u0631 \u0627\u0644\u062a\u0647\u0627\u0646\u064a \u0627\u0644\u0635\u0627\u062f\u0642\u0629 \u0648\u062e\u0627\u0644\u0635 \u0627\u0644\u062a\u062d\u064a\u0627\u062a \u0627\u0644\u0637\u064a\u0628\u0629 *\u0628\u0645\u0646\u0627\u0633\u0628\u0629 \u0627\u0644\u0639\u064a\u062f* \u0639\u064a\u062f\u0643\u0645 \u0633\u0639\u064a\u062f \u060c \u0648\u0639\u0645\u0631\u0643\u0645 \u0645\u062f\u064a\u062f \u0639\u0644\u0649 \u0637\u0627\u0639\u0629 \u0627\u0644\u0644\u0647\u2026 https://www. instagram.com/p/BHgW_5GgHXa/
p260
sg5
(lp261
sg7
g8
sg9
(lp262
sba(imodel.Tweet
Tweet
p263
(dp264
g3
V\u0643\u0644 \u0639\u0627\u0645 \u0648\u0623\u0646\u062a\u0645 \u0628\u062e\u064a\u0631 ... \u0639\u064a\u062f \u0633\u0639\u064a\u062f @Al Rafiah District https://www. instagram.com/p/BHgR0ZkBo1w/
p265
sg5
(lp266
sg7
g8
sg9
(lp267
sba(imodel.Tweet
Tweet
p268
(dp269
g3
V\u0643\u0644 \u0633\u0646\u0629 \u0648 \u0623\u0646\u062a\u0645 \u0637\u064a\u0628\u064a\u0646 \u0648 \u0628\u062e\u064a\u0631 \u0623\u0646\u062a\u0645 \u0648 \u0643\u0644 \u0623\u0647\u0644\u0643\u0645 \u0648 \u0627\u0644\u0644\u064a \u0628\u062a\u062d\u0628\u0648\u0647\u0645 \u064a\u0627 \u0631\u0628 \u060c \u0639\u064a\u062f \u0641\u0637\u0631 \u0633\u0639\u064a\u062f \u0639\u0644\u064a\u0646\u0627 \u0643\u0644\u0646\u0627 \u0625\u0646 \u0634\u0627\u0621\u2026 https://www. instagram.com/p/BHgRgYMD1A3/
p270
sg5
(lp271
sg7
g8
sg9
(lp272
sba(imodel.Tweet
Tweet
p273
(dp274
g3
V\u0639\u064a\u062f \u0622\u0645\u0646 \u0648 \u0633\u0643\u064a\u0646\u0647 \u062f\u0627\u0626\u0645\u0629 \u0639\u0644\u0649 \u0627\u0644\u0642\u0644\u0648\u0628 \u0639\u0644\u0649 \u0627\u0644\u0627\u0647\u0644 \u0648\u0627\u0644\u0623\u062d\u0628\u0629 \u0648\u0627\u0644\u0623\u0635\u062f\u0642\u0627\u0621\u060c \u0648\u0627\u0644\u0623\u0648\u0637\u0627\u0646 \u0627\u0644\u062c\u0645\u064a\u0644\u0647 \u0639\u0644\u0649 \u0627\u0644\u062c\u0645\u064a\u0639 \u0639\u064a\u062f \u0633\u0639\u064a\u062f \u0648\u0639\u0633\u0627\u0643\u0645 \u0645\u0646 \u0639\u0648\u0627\u062f\u0629 pic.twitter.com/NkVaYEvZDb
p275
sg5
(lp276
sg7
g8
sg9
(lp277
sba(imodel.Tweet
Tweet
p278
(dp279
g3
V\u0627\u0644\u0633\u0644\u0627\u0645 \u0639\u0644\u06cc\u06a9\u0645 \u062a\u0645\u0627\u0645 \u062f\u0648\u0633\u062a\u0648\u06ba \u06a9\u0648 \u0627\u06cc\u0645\u0627\u0646 \u060c \u0639\u0627\u0641\u06cc\u062a \u0627\u0648\u0631 \u0633\u0644\u0627\u0645\u062a\u06cc \u06a9\u06cc \u062f\u0639\u0627\u0624\u06ba \u06a9\u06d2 \u0633\u0627\u062a\u06be \u0639\u06cc\u062f \u0633\u0639\u06cc\u062f \u0645\u0628\u0627\u0631\u06a9! #EidMubarak pic.twitter.com/vYDkvAp5qu
p280
sg5
(lp281
sg7
V#EidMubarak
p282
sg9
(lp283
sba(imodel.Tweet
Tweet
p284
(dp285
g3
V\u0627\u0647\u0644 \u0641\u0644\u0633\u0637\u064a\u0646 \u0648\u0627\u0647\u0644 \u0627\u0644\u062c\u0632\u0627\u0626\u0631 \u0648\u0633\u0648\u0631\u064a\u0627 \u0648\u0643\u0644 \u0627\u0644\u0648\u0637\u0646 \u0627\u0644\u0639\u0631\u0628\u064a \u0639\u0628\u062f \u0633\u0639\u064a\u062f \u064a\u0627 \u0623\u062d\u0628\u0627\u0628 \u0627\u0646 \u0634\u0627\u0621 \u0627\u0644\u0639\u064a\u062f \u0627\u0644\u062c\u0627\u064a \u062a\u0646\u062a\u0647\u064a \u062c\u0631\u0627\u062d \u0627\u0644\u0627\u0645\u0629 #\u062b\u064a\u0627\u0628_\u0627\u0644\u0639\u064a\u062f pic.twitter.com/IQHbxlRcb4
p286
sg5
(lp287
sg7
V#\u062b\u064a\u0627\u0628_\u0627\u0644\u0639\u064a\u062f
p288
sg9
(lp289
sba(imodel.Tweet
Tweet
p290
(dp291
g3
V\u0633\u0639\u064a\u062f\u064c \u0644\u0623\u0646\u064a \u0623\u0635\u0628\u062d\u062a \u0627\u062d\u062a\u0641\u0638 \u0628\u0628\u0639\u0636 \u0627\u0644\u0643\u0644\u0627\u0645 \u0641\u064a \u0635\u062f\u0631\u064a\u060c \u0648 \u0642\u0648\u064a \u0644\u0644\u062d\u062f\u0651 \u0627\u0644\u0630\u064a \u0644\u0645 \u0623\u0639\u064f\u062f \u0623\u062d\u062a\u0627\u062c \u0623\u064f\u0630\u0646\u0627\u064b \u062a\u0633\u0645\u0639\u0646\u064a.
p292
sg5
(lp293
sg7
g8
sg9
(lp294
sba(imodel.Tweet
Tweet
p295
(dp296
g3
V\u0623\u0637\u0647\u0631 \u0623\u0646\u0648\u0627\u0639 \u0627\u0644\u062d\u064f\u0628 : \u0623\u0646 \u062a\u064f\u062d\u0628 \u0634\u062e\u0635 \u0648\u0623\u0646\u062a \u062a\u0639\u0644\u0645 \u0623\u0646\u0647 \u0644\u0646 \u064a\u0643\u0648\u0646 \u0645\u0644\u0643\u0643 \u0648\u0644\u0627 \u0645\u0646 \u0646\u0635\u064a\u0628\u0643 \u060c \u0648\u0644\u0643\u0646 \u062a\u0628\u0642\u0649 \u062a\u064f\u062d\u0628\u0647 \u0648\u062a\u064f\u062d\u0628 \u0622\u0646 \u062a\u0631\u0627\u0647 \u0633\u0639\u064a\u062f \u0641\u0642\u0637 \u0644\u0640 \u0623\u0646\u0643 \u0623\u062d\u0628\u0628\u062a\u0647 ..
p297
sg5
(lp298
sg7
g8
sg9
(lp299
sba(imodel.Tweet
Tweet
p300
(dp301
g3
V\u0661\u0668 \u062a\u06cc\u0631 \u0628\u06cc \u0633\u0631\u0627\u0646\u062c\u0627\u0645\u06cc \u0633\u0639\u06cc\u062f \u0632\u06cc\u0646\u0627\u0644\u06cc \u06a9\u062c\u0627\u0633\u062a\u061f!
p302
sg5
(lp303
sg7
g8
sg9
(lp304
sba(imodel.Tweet
Tweet
p305
(dp306
g3
V\u0644\u0627 \u062a\u0635\u0627\u0644\u062d\u060c \u0644\u0627 \u062a\u0635\u0627\u0644\u062d\u0647. \u062a\u0630\u0643\u0631 \u0643\u0644 \u0645\u0639\u0627\u0645\u0644\u0627\u062a\u0647 \u0627\u0644\u0633\u064a\u0626\u0629 \u0631\u063a\u0645 \u0623\u0646\u0647 \u0642\u0627\u062f\u0631 \u0639\u0644\u0649 \u0645\u0646\u062d\u0643 \u0627\u0644\u062d\u0628 \u0644\u0643\u0646\u0647 \u0644\u0645 \u064a\u0631\u063a\u0628 \u0644\u0623\u0646 \u0633\u0639\u064a\u062f \u0628\u0627\u0630\u0644\u0627\u0644\u0643. \u0648\u0645\u0628\u0633\u0648\u0637 \u0643\u0648\u0646\u0647 \u062d\u0627\u0644\u0629 \u0636\u0639\u0641 \u0628\u0642\u0644\u0628\u0643.
p307
sg5
(lp308
sg7
g8
sg9
(lp309
sba(imodel.Tweet
Tweet
p310
(dp311
g3
V\u0643\u0644 \u0639\u0627\u0645 \u0648\u0623\u0646\u062a\u0645 \u0628\u062e\u064a\u0631 #\u0645\u0637\u064a\u0631 #\u0645\u0639\u0627\u064a\u062f\u0629_\u0642\u0628\u064a\u0644\u0629_\u0645\u0637\u064a\u0631 #\u0639\u0627\u062f_\u0639\u064a\u062f\u0643\u0645_\u064a\u0627_\u0645\u0637\u064a\u0631 #\u0645\u0639\u0627\u064a\u062f\u0647_\u0627\u0644\u0645\u0634\u0627\u0631\u064a\u0641_\u0645\u0646_\u0645\u0637\u064a\u0631 #\u0639\u064a\u062f\u0643\u0645_\u0645\u0628\u0627\u0631\u0643 #\u0639\u064a\u062f\u0646\u0627_\u0641\u0631\u062d\u0647 #\u0639\u064a\u062f_\u0627\u0644\u0641\u0637\u0631 #\u0639\u064a\u062f_ \u0633\u0639\u064a\u062f
p312
sg5
(lp313
sg7
V#\u0645\u0637\u064a\u0631 #\u0645\u0639\u0627\u064a\u062f\u0629_\u0642\u0628\u064a\u0644\u0629_\u0645\u0637\u064a\u0631 #\u0639\u0627\u062f_\u0639\u064a\u062f\u0643\u0645_\u064a\u0627_\u0645\u0637\u064a\u0631 #\u0645\u0639\u0627\u064a\u062f\u0647_\u0627\u0644\u0645\u0634\u0627\u0631\u064a\u0641_\u0645\u0646_\u0645\u0637\u064a\u0631 #\u0639\u064a\u062f\u0643\u0645_\u0645\u0628\u0627\u0631\u0643 #\u0639\u064a\u062f\u0646\u0627_\u0641\u0631\u062d\u0647 #\u0639\u064a\u062f_\u0627\u0644\u0641\u0637\u0631 #\u0639\u064a\u062f_
p314
sg9
(lp315
sba(imodel.Tweet
Tweet
p316
(dp317
g3
V\u0643\u0645 \u0623\u0646\u0627 \u0633\u0639\u064a\u062f \u0645\u0639 #\u062e\u0636\u0631 \u0639\u0628\u062f \u0627\u0644\u0645\u0639\u0637\u064a \u0627\u0644\u0630\u064a \u0639\u0646 \u0637\u0631\u064a\u0642\u0647 \u062f\u062e\u0644\u062a \u0627\u0644\u0627\u0633\u0644\u0627\u0645 \u0644\u0642\u062f \u0623\u0633\u0639\u062f\u0646\u064a \u0627\u064a\u0636\u0627 \u0627\u0646\u0647 \u0642\u0627\u0645 \u0628\u0627\u0644\u062f\u0639\u0627\u0621 \u0644\u0627\u0644\u0645\u0627\u0646\u064a\u0627 \u0627\u0646 \u064a\u062d\u0641\u0638\u0647\u0627 \u0645\u0646 \u0627\u0644\u0634\u0631 pic.twitter.com/vIQCFkF8Q1
p318
sg5
(lp319
sg7
V#\u062e\u0636\u0631
p320
sg9
(lp321
sba(imodel.Tweet
Tweet
p322
(dp323
g3
V\u0635\u0648\u0631 \u062a\u0638\u0647\u0631 \u062d\u062c\u0645 \u0627\u0644\u0625\u0642\u0628\u0627\u0644 \u0639\u0644\u0649 \u0627\u0644\u0641\u0639\u0627\u0644\u064a\u0627\u062a \u0641\u064a #\u0639\u064a\u062f_\u0627\u0644\u0634\u0631\u0642\u064a\u0629 \u0628\u0627\u0644\u0635\u0627\u0644\u0629 \u0627\u0644\u062e\u0636\u0631\u0627\u0621 . \u062a\u0635\u0648\u064a\u0631 : \u0633\u0639\u064a\u062f \u0639\u0633\u064a\u0631\u064a pic.twitter.com/cVA87PfcjV
p324
sg5
(lp325
sg7
V#\u0639\u064a\u062f_\u0627\u0644\u0634\u0631\u0642\u064a\u0629
p326
sg9
(lp327
sba(imodel.Tweet
Tweet
p328
(dp329
g3
V@Ania27El \u0639\u064a\u062f \u0645\u064a\u0644\u0627\u062f \u0633\u0639\u064a\u062f \u0643\u0644 \u0633\u0646\u0629 \u0648 \u0627\u0646\u062a\u064a \u0637\u064a\u0628\u0629 \u0639\u064a\u062f\u0643 \u0645\u0628\u0627\u0631\u0643 #SouhilaBenLachhab #\u0628\u0644\u062f_\u0627\u0644\u0645\u0644\u064a\u0648\u0646_\u0634\u0647\u064a\u062f
p330
sg5
(lp331
sg7
V#SouhilaBenLachhab #\u0628\u0644\u062f_\u0627\u0644\u0645\u0644\u064a\u0648\u0646_\u0634\u0647\u064a\u062f
p332
sg9
(lp333
sba(imodel.Tweet
Tweet
p334
(dp335
g3
V\u0644\u064a\u0644\u0647 \u062d\u0628\u064a\u0628\u064a .. \u0644\u064a\u0644\u0647 \u0644\u064a\u0644\u0647 \u062a\u062c\u064a\u0646\u064a .. \u0644\u064a\u0644\u0647 \u0631\u0648\u062d\u064a \u0648\u0633\u0646\u064a\u0646\u064a \u0645\u0634\u062a\u0627\u0642\u0629 \u0644\u064a\u0643 #\u0633\u0645\u064a\u0631\u0629_ \u0633\u0639\u064a\u062f pic.twitter.com/2L8Xkwadq3
p336
sg5
(lp337
sg7
V#\u0633\u0645\u064a\u0631\u0629_
p338
sg9
(lp339
sba(imodel.Tweet
Tweet
p340
(dp341
g3
V\u0639\u064a\u062f\u0643\u0645 \u0645\u0628\u0627\u0631\u0643 \u0648 \u062a\u0642\u0628\u0644 \u0627\u0644\u0644\u0647 \u0637\u0627\u0639\u062a\u0643\u0645 .. \u0643\u0644 \u0639\u0627\u0645 \u0648 \u0627\u0646\u062a\u0645 \u0628\u062e\u064a\u0631 .. #VictoryMotorcycles #kuwaiti #kuwaity \u2026 https://www. instagram.com/p/BHh-TIrAupI/
p342
sg5
(lp343
sg7
V#VictoryMotorcycles #kuwaiti #kuwaity
p344
sg9
(lp345
sba(imodel.Tweet
Tweet
p346
(dp347
g3
V\u0628\u0639\u062f \u0643\u0645 \u0633\u0646\u0629 \u0645\u0646 \u0627\u0644\u062a\u0639\u064a\u064a\u062f \u0641\u064a \u062f\u0627\u0631 \u0627\u0644\u0641\u0631\u0646\u062c\u0629 \u060c \u064a\u0639\u0648\u062f \u0627\u0644\u0634\u0628\u0627\u0628 \u0628\u0627\u0644\u0632\u064a \u0627\u0644\u0648\u0637\u0646\u064a\u060c \u0643\u0644 \u0639\u0627\u0645 \u0648 \u0623\u0646\u062a\u0645 \u0628\u062e\u064a\u0631 @\u0645\u0643\u0647\u2026 https://www. instagram.com/p/BHh6RT1hcoa/
p348
sg5
(lp349
sg7
g8
sg9
(lp350
sba(imodel.Tweet
Tweet
p351
(dp352
g3
V\u0643\u0644 \u0639\u0627\u0645 \u0648 \u0627\u0646\u062a\u0645 \u0628\u062e\u064a\u0631 \u0645\u0646 \u0627\u0644\u0633\u0644\u0637\u0627\u0646 \u0641\u064a\u0635\u0644 \u0628\u0627\u0634\u0627\u2026 https://www. instagram.com/p/BHh5HPZDYvf/
p353
sg5
(lp354
sg7
g8
sg9
(lp355
sba(imodel.Tweet
Tweet
p356
(dp357
g3
V. . . . . \u0648 \u0627\u0646 \u0643\u0627\u0646 \u0644 \u0623\u0645\u0646\u064a\u062a\u064a \u0627\u0646 \u062a\u062a\u062d\u0642\u0642 \u0627\u0644\u0627\u0646 \u0641\u0623\u0646\u0627 \u0627\u0631\u064a\u062f\u0647\u0627 \u0641\u064a \u0643\u0644 \u062d\u064a\u0646 \u0633\u0639\u064a\u062f\u0647\u0650 \u0643\u0644 \u0639\u0627\u0645 \u0648 \u0623\u0646\u062a\u0645 \u0628\u062e\u064a\u0631 \u2026 https://www. instagram.com/p/BHhsrc3Bs2f/
p358
sg5
(lp359
sg7
g8
sg9
(lp360
sba(imodel.Tweet
Tweet
p361
(dp362
g3
V\u0627\u0648\u0644 \u0639\u064a\u062f \u062e\u0627\u0631\u062c \u0627\u0644\u0628\u0644\u062f \u0648 \u0642\u0636\u064a\u0646\u0627\u0647 \u0641\u0627\u0644\u0645\u0633\u062a\u0634\u0641\u0649 \u0643\u0644 \u0639\u0627\u0645 \u0648 \u0627\u0646\u062a\u0645 \u0628\u062e\u064a\u0631 \u0648 \u062a\u0642\u0628\u0644\u2026 https://www. instagram.com/p/BHhfKvwAcTuQ IMN2b-4XPdPnObg6cARKGYb_6k0/ \u2026
p363
sg5
(lp364
sg7
g8
sg9
(lp365
sba(imodel.Tweet
Tweet
p366
(dp367
g3
V\u0639\u064a\u062f\u0643\u0645 \u0645\u0628\u0627\u0631\u0643 \u0648 \u0643\u0644 \u0639\u0627\u0645 \u0648 \u0623\u0646\u062a\u0645 \u0628\u062e\u064a\u0631 \u062a\u0645 \u0627\u0644\u0646\u0634\u0631 \u0639\u0646 \u0637\u0631\u064a\u0642 \u062a\u0637\u0628\u064a\u0642 \u0639\u0634\u064a\u0631\u0629 \u0627\u0644\u0636\u0645\u0627\u0631\u064a pic.twitter.com/9H6ce4h7f6
p368
sg5
(lp369
sg7
g8
sg9
(lp370
sba(imodel.Tweet
Tweet
p371
(dp372
g3
V\u0643\u0644 \u0639\u0627\u0645 \u0648 \u0627\u0646\u062a\u0645 \u0628\u062e\u064a\u0631 (@Doha District in Dhahran, Eastern Province) https://www. swarmapp.com/c/fgN4sj5gFjf pic.twitter.com/8rlGqJihyF
p373
sg5
(lp374
sg7
g8
sg9
(lp375
sba(imodel.Tweet
Tweet
p376
(dp377
g3
V\u0643\u0644 \u0639\u0627\u0645 \u0648 \u0627\u0646\u062a\u0645 \u0628\u062e\u064a\u0631 . \u062a\u0642\u0628\u0644 \u0627\u0644\u0644\u0647\u064f \u0645\u0646\u0627 \u0648 \u0645\u0646\u0643\u0645 \u0635\u0627\u0644\u062d \u0627\u0644\u0623\u0639\u0645\u0627\u0644. May Allah\u2026 https://www. instagram.com/p/BHgx3aAgKwVP FljiGPGS_qBqMFR10AqZKg2zWo0/ \u2026
p378
sg5
(lp379
sg7
g8
sg9
(lp380
sba(imodel.Tweet
Tweet
p381
(dp382
g3
V#\u0643\u0644 _ \u0639\u0627\u0645 _ \u0648 _ \u0627\u0646\u062a\u0645 _ \u0628\u062e\u064a\u0631 @Sharjah, United Arab Emirates https://www. instagram.com/p/BHgW3mggOdM/
p383
sg5
(lp384
sg7
V#\u0643\u0644
p385
sg9
(lp386
sba(imodel.Tweet
Tweet
p387
(dp388
g3
V#\u0643\u0627\u0646\u0648 \u0627\u0644\u0643\u0646\u062f\u064a \u0643\u0644 \u0639\u0627\u0645 \u0648 \u0623\u0646\u062a\u0645 \u0628\u062e\u064a\u0631 \u0644\u0627 \u062a\u0646\u0633\u0648\u0646 \u062a\u0639\u0627\u064a\u062f\u0648\u0646 \u0639\u0644\u0649 \u0627\u062e\u0648\u0627\u0646\u0646\u0627 \u0645\u0646\u062a\u0633\u0628\u064a\u0646 \u0627\u0644\u0642\u0648\u0627\u062a \u0627\u0644\u0645\u0633\u0644\u062d\u0629\u2026 https://www. instagram.com/p/BHgWTPRBRfK/
p389
sg5
(lp390
sg7
V#\u0643\u0627\u0646\u0648
p391
sg9
(lp392
sba(imodel.Tweet
Tweet
p393
(dp394
g3
V\u0643\u0644 \u0639\u0627\u0645 \u0648 \u0623\u0646\u062a\u0645 \u0628\u062e\u064a\u0631 .. \u062f\u0627\u0645\u062a \u0623\u0641\u0631\u0627\u062d\u0643\u0645. @MohamedNoor_N18 @waleedalfarraj @BADER_AL_SAEED \u0627\u0644\u0641\u064a\u0641\u0627_\u064a\u0646\u0635\u0641_\u0646\u0648\u0631 pic.twitter.com/gj9ThMw21J
p395
sg5
(lp396
sg7
g8
sg9
(lp397
sba(imodel.Tweet
Tweet
p398
(dp399
g3
V\u0648\u0643\u064f\u0644 \u0639\u064e\u0622\u0645 \u0648\u0623\u0646\u062a\u0645\u064e \u062a\u064e\u062d\u062a\u0641\u0650\u0644\u064f\u0648\u0646 \u0628\u0639\u0651\u064a\u062f \u062a\u064e\u0644\u0648 \u0627\u0644\u0622\u062e\u0631 \u0643\u0644 \u0639\u0627\u0645 \u0648 \u0623\u0646\u062a\u0645 \u0628\u062e\u064a\u0631 #\u0628\u0643\u0644_\u0641\u062e\u0631_\u0627\u0646\u0627_\u0633\u0639\u0648\u062f\u064a #\u0628\u0643\u0644_\u0641\u062e\u0631_\u0627\u0646\u0627_\u0633\u0639\u0648\u062f\u064a pic.twitter.com/nboIYpnhcH \u201d
p400
sg5
(lp401
sg7
V#\u0628\u0643\u0644_\u0641\u062e\u0631_\u0627\u0646\u0627_\u0633\u0639\u0648\u062f\u064a #\u0628\u0643\u0644_\u0641\u062e\u0631_\u0627\u0646\u0627_\u0633\u0639\u0648\u062f\u064a
p402
sg9
(lp403
sba(imodel.Tweet
Tweet
p404
(dp405
g3
V\u0639\u064a\u062f \u0627\u0644\u0634\u0647\u064a\u062f #\u0639\u0644\u064a_\u0627\u0644\u0631\u0628\u062d \u0643\u0644 \u0639\u0622\u0645 \u0648 \u0623\u0646\u062a\u0645 \u0628\u062e\u064a\u0631 pic.twitter.com/N8IkqNqeaG
p406
sg5
(lp407
sg7
V#\u0639\u0644\u064a_\u0627\u0644\u0631\u0628\u062d
p408
sg9
(lp409
sba(imodel.Tweet
Tweet
p410
(dp411
g3
V\u0643\u0644 \u0639\u0627\u0645 \u0648 \u0627\u0646\u062a\u0645 \u0648 \u0645\u0646 \u062a\u062d\u0628\u0648\u0646 \u0628\u062e\u064a\u0631 .. \u0648 \u0643\u0644 \u0639\u0627\u0645 \u0648 \u062f\u064a\u0627\u0631 \u0627\u0628\u0646 \u0633\u0639\u0648\u062f \u0628\u062e\u064a\u0631 \u0648 \u0627\u0645\u0646 \u0648 \u0627\u0645\u0627\u0646 \u0648 \u062c\u0645\u064a\u0639 \u0627\u0644\u0628\u0644\u062f\u0627\u0646 \u0627\u0644\u0627\u0633\u0644\u0627\u0645\u064a\u0647 .
p412
sg5
(lp413
sg7
g8
sg9
(lp414
sba(imodel.Tweet
Tweet
p415
(dp416
g3
V\u0643\u0644 \u0639\u0627\u0645 \u0648 \u0627\u0646\u062a\u0645 \u0628\u062e\u064a\u0631 \u0665\u0660 \u0647\u062f\u064a\u0647 \u0665\u0660 \u0637\u0641\u0644 \u0665\u0660 \u0627\u0628\u062a\u0633\u0627\u0645\u0647 #\u0632\u064a\u0627\u0631\u0629_\u0627\u0644\u0641\u0647\u062f\u0647 #\u0627\u0644\u0641\u0647\u062f\u0647 @ksmcmedia pic.twitter.com/Y9iJ4EQ6Rx
p417
sg5
(lp418
sg7
V#\u0632\u064a\u0627\u0631\u0629_\u0627\u0644\u0641\u0647\u062f\u0647 #\u0627\u0644\u0641\u0647\u062f\u0647
p419
sg9
(lp420
sba(imodel.Tweet
Tweet
p421
(dp422
g3
V\u0627\u0644\u0639\u064a\u062f \u0623\u062d\u0644\u0649 \u0645\u0639\u064a ..\u0627\u062d\u0645 \u0627\u062d\u0645 \u0643\u0644 \u0639\u0627\u0645 \u0648 \u0627\u0646\u062a\u0645 \u0628\u062e\u064a\u0631 \u0648 \u0628\u0639\u0631\u0641 \u0645\u062a\u0623\u062e\u0631\u0629 \u0628\u0633 \u0638\u0631\u0648\u0641 pic.twitter.com/Uyjz1Tc5yO
p423
sg5
(lp424
sg7
g8
sg9
(lp425
sba(imodel.Tweet
Tweet
p426
(dp427
g3
V\u0646\u0639\u0645\u0644 \u0645\u0646 \u0623\u062c\u0644\u0643\u0645 \u0643\u0644 \u0639\u0627\u0645 \u0648 \u0623\u0646\u062a\u0645 \u0628\u062e\u064a\u0631 pic.twitter.com/G4l9LaB1F1
p428
sg5
(lp429
sg7
g8
sg9
(lp430
sba(imodel.Tweet
Tweet
p431
(dp432
g3
V\u0643\u0644 \u0639\u0627\u0645 \u0648 \u0627\u0646\u062a\u0645 \u0628\u062e\u064a\u0631 . \u064a\u0646\u0639\u0627\u062f \u0639\u0644\u064a\u0643\u0645 \u062c\u0645\u064a\u0639\u0627\u064b Eid Mubarak pic.twitter.com/nfV6Th2EP6
p433
sg5
(lp434
sg7
g8
sg9
(lp435
sba(imodel.Tweet
Tweet
p436
(dp437
g3
V#\u062c\u0646\u0648\u062f\u0646\u0627_ \u0627\u0646\u062a\u0645 _\u0639\u064a\u062f\u0646\u0627 \u0627\u0644\u0644\u0647 \u064a\u062d\u0641\u0638\u0643\u0645 \u0648 \u064a\u062d\u0645\u064a\u0643\u0645 \u0648 \u064a\u0631\u062f\u0643\u0645 \u0625\u0644\u0649 \u0623\u0647\u0644\u0643\u0645 \u0633\u0627\u0644\u0645\u064a\u0646 \u063a\u0627\u0646\u0645\u064a\u0646 \u0648 \u0643\u0644 \u0639\u0627\u0645 \u0648 \u0623\u0646\u062a\u0645 \u0628\u062e\u064a\u0631
p438
sg5
(lp439
sg7
V#\u062c\u0646\u0648\u062f\u0646\u0627_
p440
sg9
(lp441
sba(imodel.Tweet
Tweet
p442
(dp443
g3
V- * \u0643\u0644\u0651 \u0639\u0627\u0645 \u0648 \u0623\u0646\u062a\u064f\u0645 \u0627\u0644\u0641\u0631\u062d *. \u0643\u064f\u0644 \u0639\u0627\u0645 \u0648\u0623\u0646\u062a\u0645 \u0628\u0650\u062e\u064a\u0631 \u0648\u0623\u0639\u064a\u064e\u0627\u062f\u064a \u0644\u0627 \u062a\u062e\u0644\u064f\u0648 \u0645\u0650\u0646\u0643\u0645
p444
sg5
(lp445
sg7
g8
sg9
(lp446
sba.