ccopy_reg
_reconstructor
p0
(cnltk.classify.naivebayes
NaiveBayesClassifier
p1
c__builtin__
object
p2
Ntp3
Rp4
(dp5
S'_labels'
p6
(lp7
S'A'
p8
aS'H'
p9
aS'S'
p10
asS'_feature_probdist'
p11
(dp12
sS'_label_probdist'
p13
g0
(cnltk.probability
ELEProbDist
p14
g2
Ntp15
Rp16
(dp17
S'_gamma'
p18
F0.5
sS'_N'
p19
I16000
sS'_freqdist'
p20
cnltk.probability
FreqDist
p21
((dp22
g8
I359
sg9
I5077
sg10
I10564
stp23
Rp24
sS'_bins'
p25
I3
sS'_divisor'
p26
F16001.5
sbsb.